target datalayout = "e-m:e-p270:32:32-p271:32:32-p272:64:64-i64:64-i128:128-f80:128-n8:16:32:64-S128"
target triple = "x86_64-pc-linux-gnu"

%struct.PJconsts = type { ptr, ptr, ptr, ptr, ptr, ptr, ptr, ptr, ptr, ptr, ptr, ptr, i32, ptr, ptr, ptr, ptr, ptr, ptr, ptr, ptr, double, double, double, double, double, double, double, double, double, double, double, double, double, double, double, double, double, double, double, double, double, double, i32, i32, i32, i32, i32, i32, i32, i32, i32, i32, i32, ptr, ptr, ptr, ptr, ptr, ptr, double, double, double, double, double, double, double, double, double, double, double, i32, [7 x double], i32, ptr, ptr, double, double, i32, [4 x i8], %"class.std::shared_ptr", i8, double, i8, %"class.std::__cxx11::basic_string", %"class.std::__cxx11::basic_string", %"class.std::__cxx11::basic_string", i8, %"class.std::vector", i32, %"class.std::vector.3", i32, i8, i8, i8, ptr }
%"class.std::shared_ptr" = type { %"class.std::__shared_ptr" }
%"class.std::__shared_ptr" = type { ptr, %"class.std::__shared_count" }
%"class.std::__shared_count" = type { ptr }
%"class.std::__cxx11::basic_string" = type { %"struct.std::__cxx11::basic_string<char>::_Alloc_hider", i64, %union.anon }
%"struct.std::__cxx11::basic_string<char>::_Alloc_hider" = type { ptr }
%union.anon = type { i64, [8 x i8] }
%"class.std::vector" = type { %"struct.std::_Vector_base" }
%"struct.std::_Vector_base" = type { %"struct.std::_Vector_base<osgeo::proj::operation::GridDescription, std::allocator<osgeo::proj::operation::GridDescription>>::_Vector_impl" }
%"struct.std::_Vector_base<osgeo::proj::operation::GridDescription, std::allocator<osgeo::proj::operation::GridDescription>>::_Vector_impl" = type { %"struct.std::_Vector_base<osgeo::proj::operation::GridDescription, std::allocator<osgeo::proj::operation::GridDescription>>::_Vector_impl_data" }
%"struct.std::_Vector_base<osgeo::proj::operation::GridDescription, std::allocator<osgeo::proj::operation::GridDescription>>::_Vector_impl_data" = type { ptr, ptr, ptr }
%"class.std::vector.3" = type { %"struct.std::_Vector_base.4" }
%"struct.std::_Vector_base.4" = type { %"struct.std::_Vector_base<PJCoordOperation, std::allocator<PJCoordOperation>>::_Vector_impl" }
%"struct.std::_Vector_base<PJCoordOperation, std::allocator<PJCoordOperation>>::_Vector_impl" = type { %"struct.std::_Vector_base<PJCoordOperation, std::allocator<PJCoordOperation>>::_Vector_impl_data" }
%"struct.std::_Vector_base<PJCoordOperation, std::allocator<PJCoordOperation>>::_Vector_impl_data" = type { ptr, ptr, ptr }
%"struct.(anonymous namespace)::pj_omerc_data" = type { double, double, double, double, double, double, double, double, double, double, double, double, double, double, i32 }
%struct.PJ_LP = type { double, double }
%struct.PJ_XY = type { double, double }

; Function Attrs: mustprogress uwtable
define internal { double, double } @_ZL15omerc_e_forward5PJ_LPP8PJconsts(double %0, double %1, ptr noundef %2) #0 {
  %4 = alloca %struct.PJ_XY, align 8
  %5 = alloca %struct.PJ_LP, align 8
  %6 = alloca ptr, align 8
  %7 = alloca ptr, align 8
  %8 = alloca double, align 8
  %9 = alloca double, align 8
  %10 = alloca double, align 8
  %11 = alloca double, align 8
  %12 = alloca double, align 8
  %13 = alloca double, align 8
  %14 = alloca double, align 8
  %15 = alloca double, align 8
  %16 = alloca i32, align 4
  %17 = alloca double, align 8
  %18 = getelementptr inbounds nuw { double, double }, ptr %5, i32 0, i32 0
  store double %0, ptr %18, align 8
  %19 = getelementptr inbounds nuw { double, double }, ptr %5, i32 0, i32 1
  store double %1, ptr %19, align 8
  store ptr %2, ptr %6, align 8, !tbaa !3
  call void @llvm.memset.p0.i64(ptr align 8 %4, i8 0, i64 16, i1 false)
  call void @llvm.lifetime.start.p0(i64 8, ptr %7) #16
  %20 = load ptr, ptr %6, align 8, !tbaa !3
  %21 = getelementptr inbounds nuw %struct.PJconsts, ptr %20, i32 0, i32 11
  %22 = load ptr, ptr %21, align 8, !tbaa !45
  store ptr %22, ptr %7, align 8, !tbaa !43
  call void @llvm.lifetime.start.p0(i64 8, ptr %8) #16
  call void @llvm.lifetime.start.p0(i64 8, ptr %9) #16
  %23 = getelementptr inbounds nuw %struct.PJ_LP, ptr %5, i32 0, i32 1
  %24 = load double, ptr %23, align 8, !tbaa !82
  %25 = call double @llvm.fabs.f64(double %24)
  %26 = fsub double %25, 0x3FF921FB54442D18
  %27 = call double @llvm.fabs.f64(double %26)
  %28 = fcmp ogt double %27, 1.000000e-10
  br i1 %28, label %29, label %135

29:                                               ; preds = %3
  call void @llvm.lifetime.start.p0(i64 8, ptr %10) #16
  %30 = load ptr, ptr %7, align 8, !tbaa !43
  %31 = getelementptr inbounds nuw %"struct.(anonymous namespace)::pj_omerc_data", ptr %30, i32 0, i32 2
  %32 = load double, ptr %31, align 8, !tbaa !57
  %33 = getelementptr inbounds nuw %struct.PJ_LP, ptr %5, i32 0, i32 1
  %34 = load double, ptr %33, align 8, !tbaa !82
  %35 = getelementptr inbounds nuw %struct.PJ_LP, ptr %5, i32 0, i32 1
  %36 = load double, ptr %35, align 8, !tbaa !82
  %37 = call double @sin(double noundef %36) #16, !tbaa !42
  %38 = load ptr, ptr %6, align 8, !tbaa !3
  %39 = getelementptr inbounds nuw %struct.PJconsts, ptr %38, i32 0, i32 26
  %40 = load double, ptr %39, align 8, !tbaa !58
  %41 = call noundef double @_Z7pj_tsfnddd(double noundef %34, double noundef %37, double noundef %40)
  %42 = load ptr, ptr %7, align 8, !tbaa !43
  %43 = getelementptr inbounds nuw %"struct.(anonymous namespace)::pj_omerc_data", ptr %42, i32 0, i32 1
  %44 = load double, ptr %43, align 8, !tbaa !54
  %45 = call double @pow(double noundef %41, double noundef %44) #16, !tbaa !42
  %46 = fdiv double %32, %45
  store double %46, ptr %10, align 8, !tbaa !41
  call void @llvm.lifetime.start.p0(i64 8, ptr %11) #16
  %47 = load double, ptr %10, align 8, !tbaa !41
  %48 = fdiv double 1.000000e+00, %47
  store double %48, ptr %11, align 8, !tbaa !41
  call void @llvm.lifetime.start.p0(i64 8, ptr %12) #16
  %49 = load double, ptr %10, align 8, !tbaa !41
  %50 = load double, ptr %11, align 8, !tbaa !41
  %51 = fsub double %49, %50
  %52 = fmul double 5.000000e-01, %51
  store double %52, ptr %12, align 8, !tbaa !41
  call void @llvm.lifetime.start.p0(i64 8, ptr %13) #16
  %53 = load double, ptr %10, align 8, !tbaa !41
  %54 = load double, ptr %11, align 8, !tbaa !41
  %55 = fadd double %53, %54
  %56 = fmul double 5.000000e-01, %55
  store double %56, ptr %13, align 8, !tbaa !41
  call void @llvm.lifetime.start.p0(i64 8, ptr %14) #16
  %57 = load ptr, ptr %7, align 8, !tbaa !43
  %58 = getelementptr inbounds nuw %"struct.(anonymous namespace)::pj_omerc_data", ptr %57, i32 0, i32 1
  %59 = load double, ptr %58, align 8, !tbaa !54
  %60 = getelementptr inbounds nuw %struct.PJ_LP, ptr %5, i32 0, i32 0
  %61 = load double, ptr %60, align 8, !tbaa !80
  %62 = fmul double %59, %61
  %63 = call double @sin(double noundef %62) #16, !tbaa !42
  store double %63, ptr %14, align 8, !tbaa !41
  call void @llvm.lifetime.start.p0(i64 8, ptr %15) #16
  %64 = load double, ptr %12, align 8, !tbaa !41
  %65 = load ptr, ptr %7, align 8, !tbaa !43
  %66 = getelementptr inbounds nuw %"struct.(anonymous namespace)::pj_omerc_data", ptr %65, i32 0, i32 7
  %67 = load double, ptr %66, align 8, !tbaa !60
  %68 = load double, ptr %14, align 8, !tbaa !41
  %69 = load ptr, ptr %7, align 8, !tbaa !43
  %70 = getelementptr inbounds nuw %"struct.(anonymous namespace)::pj_omerc_data", ptr %69, i32 0, i32 8
  %71 = load double, ptr %70, align 8, !tbaa !61
  %72 = fmul double %68, %71
  %73 = fneg double %72
  %74 = call double @llvm.fmuladd.f64(double %64, double %67, double %73)
  %75 = load double, ptr %13, align 8, !tbaa !41
  %76 = fdiv double %74, %75
  store double %76, ptr %15, align 8, !tbaa !41
  %77 = load double, ptr %15, align 8, !tbaa !41
  %78 = call double @llvm.fabs.f64(double %77)
  %79 = fsub double %78, 1.000000e+00
  %80 = call double @llvm.fabs.f64(double %79)
  %81 = fcmp olt double %80, 1.000000e-10
  br i1 %81, label %82, label %85

82:                                               ; preds = %29
  %83 = load ptr, ptr %6, align 8, !tbaa !3
  %84 = call i32 @proj_errno_set(ptr noundef %83, i32 noundef 2050)
  store i32 1, ptr %16, align 4
  br label %132

85:                                               ; preds = %29
  %86 = load ptr, ptr %7, align 8, !tbaa !43
  %87 = getelementptr inbounds nuw %"struct.(anonymous namespace)::pj_omerc_data", ptr %86, i32 0, i32 4
  %88 = load double, ptr %87, align 8, !tbaa !65
  %89 = fmul double 5.000000e-01, %88
  %90 = load double, ptr %15, align 8, !tbaa !41
  %91 = fsub double 1.000000e+00, %90
  %92 = load double, ptr %15, align 8, !tbaa !41
  %93 = fadd double 1.000000e+00, %92
  %94 = fdiv double %91, %93
  %95 = call double @log(double noundef %94) #16, !tbaa !42
  %96 = fmul double %89, %95
  store double %96, ptr %9, align 8, !tbaa !41
  call void @llvm.lifetime.start.p0(i64 8, ptr %17) #16
  %97 = load ptr, ptr %7, align 8, !tbaa !43
  %98 = getelementptr inbounds nuw %"struct.(anonymous namespace)::pj_omerc_data", ptr %97, i32 0, i32 1
  %99 = load double, ptr %98, align 8, !tbaa !54
  %100 = getelementptr inbounds nuw %struct.PJ_LP, ptr %5, i32 0, i32 0
  %101 = load double, ptr %100, align 8, !tbaa !80
  %102 = fmul double %99, %101
  %103 = call double @cos(double noundef %102) #16, !tbaa !42
  store double %103, ptr %17, align 8, !tbaa !41
  %104 = load double, ptr %17, align 8, !tbaa !41
  %105 = call double @llvm.fabs.f64(double %104)
  %106 = fcmp olt double %105, 0x3E7AD7F29ABCAF48
  br i1 %106, label %107, label %114

107:                                              ; preds = %85
  %108 = load ptr, ptr %7, align 8, !tbaa !43
  %109 = getelementptr inbounds nuw %"struct.(anonymous namespace)::pj_omerc_data", ptr %108, i32 0, i32 0
  %110 = load double, ptr %109, align 8, !tbaa !56
  %111 = getelementptr inbounds nuw %struct.PJ_LP, ptr %5, i32 0, i32 0
  %112 = load double, ptr %111, align 8, !tbaa !80
  %113 = fmul double %110, %112
  store double %113, ptr %8, align 8, !tbaa !41
  br label %131

114:                                              ; preds = %85
  %115 = load ptr, ptr %7, align 8, !tbaa !43
  %116 = getelementptr inbounds nuw %"struct.(anonymous namespace)::pj_omerc_data", ptr %115, i32 0, i32 4
  %117 = load double, ptr %116, align 8, !tbaa !65
  %118 = load double, ptr %12, align 8, !tbaa !41
  %119 = load ptr, ptr %7, align 8, !tbaa !43
  %120 = getelementptr inbounds nuw %"struct.(anonymous namespace)::pj_omerc_data", ptr %119, i32 0, i32 8
  %121 = load double, ptr %120, align 8, !tbaa !61
  %122 = load double, ptr %14, align 8, !tbaa !41
  %123 = load ptr, ptr %7, align 8, !tbaa !43
  %124 = getelementptr inbounds nuw %"struct.(anonymous namespace)::pj_omerc_data", ptr %123, i32 0, i32 7
  %125 = load double, ptr %124, align 8, !tbaa !60
  %126 = fmul double %122, %125
  %127 = call double @llvm.fmuladd.f64(double %118, double %121, double %126)
  %128 = load double, ptr %17, align 8, !tbaa !41
  %129 = call double @atan2(double noundef %127, double noundef %128) #16, !tbaa !42
  %130 = fmul double %117, %129
  store double %130, ptr %8, align 8, !tbaa !41
  br label %131

131:                                              ; preds = %114, %107
  call void @llvm.lifetime.end.p0(i64 8, ptr %17) #16
  store i32 0, ptr %16, align 4
  br label %132

132:                                              ; preds = %131, %82
  call void @llvm.lifetime.end.p0(i64 8, ptr %15) #16
  call void @llvm.lifetime.end.p0(i64 8, ptr %14) #16
  call void @llvm.lifetime.end.p0(i64 8, ptr %13) #16
  call void @llvm.lifetime.end.p0(i64 8, ptr %12) #16
  call void @llvm.lifetime.end.p0(i64 8, ptr %11) #16
  call void @llvm.lifetime.end.p0(i64 8, ptr %10) #16
  %133 = load i32, ptr %16, align 4
  switch i32 %133, label %195 [
    i32 0, label %134
  ]

134:                                              ; preds = %132
  br label %155

135:                                              ; preds = %3
  %136 = getelementptr inbounds nuw %struct.PJ_LP, ptr %5, i32 0, i32 1
  %137 = load double, ptr %136, align 8, !tbaa !82
  %138 = fcmp ogt double %137, 0.000000e+00
  br i1 %138, label %139, label %143

139:                                              ; preds = %135
  %140 = load ptr, ptr %7, align 8, !tbaa !43
  %141 = getelementptr inbounds nuw %"struct.(anonymous namespace)::pj_omerc_data", ptr %140, i32 0, i32 11
  %142 = load double, ptr %141, align 8, !tbaa !69
  br label %147

143:                                              ; preds = %135
  %144 = load ptr, ptr %7, align 8, !tbaa !43
  %145 = getelementptr inbounds nuw %"struct.(anonymous namespace)::pj_omerc_data", ptr %144, i32 0, i32 12
  %146 = load double, ptr %145, align 8, !tbaa !70
  br label %147

147:                                              ; preds = %143, %139
  %148 = phi double [ %142, %139 ], [ %146, %143 ]
  store double %148, ptr %9, align 8, !tbaa !41
  %149 = load ptr, ptr %7, align 8, !tbaa !43
  %150 = getelementptr inbounds nuw %"struct.(anonymous namespace)::pj_omerc_data", ptr %149, i32 0, i32 4
  %151 = load double, ptr %150, align 8, !tbaa !65
  %152 = getelementptr inbounds nuw %struct.PJ_LP, ptr %5, i32 0, i32 1
  %153 = load double, ptr %152, align 8, !tbaa !82
  %154 = fmul double %151, %153
  store double %154, ptr %8, align 8, !tbaa !41
  br label %155

155:                                              ; preds = %147, %134
  %156 = load ptr, ptr %7, align 8, !tbaa !43
  %157 = getelementptr inbounds nuw %"struct.(anonymous namespace)::pj_omerc_data", ptr %156, i32 0, i32 14
  %158 = load i32, ptr %157, align 8, !tbaa !49
  %159 = icmp ne i32 %158, 0
  br i1 %159, label %160, label %165

160:                                              ; preds = %155
  %161 = load double, ptr %8, align 8, !tbaa !41
  %162 = getelementptr inbounds nuw %struct.PJ_XY, ptr %4, i32 0, i32 0
  store double %161, ptr %162, align 8, !tbaa !78
  %163 = load double, ptr %9, align 8, !tbaa !41
  %164 = getelementptr inbounds nuw %struct.PJ_XY, ptr %4, i32 0, i32 1
  store double %163, ptr %164, align 8, !tbaa !76
  br label %194

165:                                              ; preds = %155
  %166 = load ptr, ptr %7, align 8, !tbaa !43
  %167 = getelementptr inbounds nuw %"struct.(anonymous namespace)::pj_omerc_data", ptr %166, i32 0, i32 13
  %168 = load double, ptr %167, align 8, !tbaa !68
  %169 = load double, ptr %8, align 8, !tbaa !41
  %170 = fsub double %169, %168
  store double %170, ptr %8, align 8, !tbaa !41
  %171 = load double, ptr %9, align 8, !tbaa !41
  %172 = load ptr, ptr %7, align 8, !tbaa !43
  %173 = getelementptr inbounds nuw %"struct.(anonymous namespace)::pj_omerc_data", ptr %172, i32 0, i32 10
  %174 = load double, ptr %173, align 8, !tbaa !63
  %175 = load double, ptr %8, align 8, !tbaa !41
  %176 = load ptr, ptr %7, align 8, !tbaa !43
  %177 = getelementptr inbounds nuw %"struct.(anonymous namespace)::pj_omerc_data", ptr %176, i32 0, i32 9
  %178 = load double, ptr %177, align 8, !tbaa !62
  %179 = fmul double %175, %178
  %180 = call double @llvm.fmuladd.f64(double %171, double %174, double %179)
  %181 = getelementptr inbounds nuw %struct.PJ_XY, ptr %4, i32 0, i32 0
  store double %180, ptr %181, align 8, !tbaa !78
  %182 = load double, ptr %8, align 8, !tbaa !41
  %183 = load ptr, ptr %7, align 8, !tbaa !43
  %184 = getelementptr inbounds nuw %"struct.(anonymous namespace)::pj_omerc_data", ptr %183, i32 0, i32 10
  %185 = load double, ptr %184, align 8, !tbaa !63
  %186 = load double, ptr %9, align 8, !tbaa !41
  %187 = load ptr, ptr %7, align 8, !tbaa !43
  %188 = getelementptr inbounds nuw %"struct.(anonymous namespace)::pj_omerc_data", ptr %187, i32 0, i32 9
  %189 = load double, ptr %188, align 8, !tbaa !62
  %190 = fmul double %186, %189
  %191 = fneg double %190
  %192 = call double @llvm.fmuladd.f64(double %182, double %185, double %191)
  %193 = getelementptr inbounds nuw %struct.PJ_XY, ptr %4, i32 0, i32 1
  store double %192, ptr %193, align 8, !tbaa !76
  br label %194

194:                                              ; preds = %165, %160
  store i32 1, ptr %16, align 4
  br label %195

195:                                              ; preds = %194, %132
  call void @llvm.lifetime.end.p0(i64 8, ptr %9) #16
  call void @llvm.lifetime.end.p0(i64 8, ptr %8) #16
  call void @llvm.lifetime.end.p0(i64 8, ptr %7) #16
  %196 = load { double, double }, ptr %4, align 8
  ret { double, double } %196
}