; Function Attrs: mustprogress uwtable
define internal { double, double } @_ZL15omerc_e_forward5PJ_LPP8PJconsts(double %0, double %1, ptr noundef %2) #0 {
  %4 = getelementptr inbounds nuw i8, ptr %2, i64 88
  %5 = load ptr, ptr %4, align 8, !tbaa !40
  %6 = tail call double @llvm.fabs.f64(double %1)
  %7 = fadd double %6, 0xBFF921FB54442D18
  %8 = tail call double @llvm.fabs.f64(double %7)
  %9 = fcmp ogt double %8, 1.000000e-10
  br i1 %9, label %10, label %62

10:                                               ; preds = %3
  %11 = getelementptr inbounds nuw i8, ptr %5, i64 16
  %12 = load double, ptr %11, align 8, !tbaa !52
  %13 = tail call double @sin(double noundef %1) #14, !tbaa !47
  %14 = getelementptr inbounds nuw i8, ptr %2, i64 208
  %15 = load double, ptr %14, align 8, !tbaa !53
  %16 = tail call noundef double @_Z7pj_tsfnddd(double noundef %1, double noundef %13, double noundef %15)
  %17 = getelementptr inbounds nuw i8, ptr %5, i64 8
  %18 = load double, ptr %17, align 8, !tbaa !49
  %19 = tail call double @pow(double noundef %16, double noundef %18) #14, !tbaa !47
  %20 = fdiv double %12, %19
  %21 = fdiv double 1.000000e+00, %20
  %22 = fsub double %20, %21
  %23 = fmul double %22, 5.000000e-01
  %24 = fadd double %20, %21
  %25 = fmul double %24, 5.000000e-01
  %26 = fmul double %0, %18
  %27 = tail call double @sin(double noundef %26) #14, !tbaa !47
  %28 = getelementptr inbounds nuw i8, ptr %5, i64 56
  %29 = load double, ptr %28, align 8, !tbaa !65
  %30 = getelementptr inbounds nuw i8, ptr %5, i64 64
  %31 = load double, ptr %30, align 8, !tbaa !66
  %32 = fneg double %31
  %33 = fmul double %27, %32
  %34 = tail call double @llvm.fmuladd.f64(double %23, double %29, double %33)
  %35 = fdiv double %34, %25
  %36 = tail call double @llvm.fabs.f64(double %35)
  %37 = fadd double %36, -1.000000e+00
  %38 = tail call double @llvm.fabs.f64(double %37)
  %39 = fcmp uge double %38, 1.000000e-10
  br i1 %39, label %40, label %60

40:                                               ; preds = %10
  %41 = getelementptr inbounds nuw i8, ptr %5, i64 32
  %42 = load double, ptr %41, align 8, !tbaa !70
  %43 = fmul double %42, 5.000000e-01
  %44 = fsub double 1.000000e+00, %35
  %45 = fadd double %35, 1.000000e+00
  %46 = fdiv double %44, %45
  %47 = tail call double @log(double noundef %46) #14, !tbaa !47
  %48 = fmul double %43, %47
  %49 = tail call double @cos(double noundef %26) #14, !tbaa !47
  %50 = tail call double @llvm.fabs.f64(double %49)
  %51 = fcmp olt double %50, 0x3E7AD7F29ABCAF48
  br i1 %51, label %52, label %55

52:                                               ; preds = %40
  %53 = load double, ptr %5, align 8, !tbaa !51
  %54 = fmul double %0, %53
  br label %.thread

55:                                               ; preds = %40
  %56 = fmul double %27, %29
  %57 = tail call double @llvm.fmuladd.f64(double %23, double %31, double %56)
  %58 = tail call double @atan2(double noundef %57, double noundef %49) #14, !tbaa !47
  %59 = fmul double %42, %58
  br label %.thread

60:                                               ; preds = %10
  %61 = tail call i32 @proj_errno_set(ptr noundef nonnull %2, i32 noundef 2050)
  br label %83

62:                                               ; preds = %3
  %63 = fcmp ogt double %1, 0.000000e+00
  %.in.v = select i1 %63, i64 88, i64 96
  %.in = getelementptr inbounds nuw i8, ptr %5, i64 %.in.v
  %64 = load double, ptr %.in, align 8, !tbaa !78
  %65 = getelementptr inbounds nuw i8, ptr %5, i64 32
  %66 = load double, ptr %65, align 8, !tbaa !70
  %67 = fmul double %1, %66
  br label %.thread

.thread:                                          ; preds = %55, %52, %62
  %.155 = phi double [ %64, %62 ], [ %48, %52 ], [ %48, %55 ]
  %.2 = phi double [ %67, %62 ], [ %54, %52 ], [ %59, %55 ]
  %68 = getelementptr inbounds nuw i8, ptr %5, i64 112
  %69 = load i32, ptr %68, align 8, !tbaa !43
  %.not = icmp eq i32 %69, 0
  br i1 %.not, label %70, label %83

70:                                               ; preds = %.thread
  %71 = getelementptr inbounds nuw i8, ptr %5, i64 104
  %72 = load double, ptr %71, align 8, !tbaa !73
  %73 = fsub double %.2, %72
  %74 = getelementptr inbounds nuw i8, ptr %5, i64 80
  %75 = load double, ptr %74, align 8, !tbaa !68
  %76 = getelementptr inbounds nuw i8, ptr %5, i64 72
  %77 = load double, ptr %76, align 8, !tbaa !67
  %78 = fmul double %73, %77
  %79 = tail call double @llvm.fmuladd.f64(double %.155, double %75, double %78)
  %80 = fneg double %77
  %81 = fmul double %.155, %80
  %82 = tail call double @llvm.fmuladd.f64(double %73, double %75, double %81)
  br label %83

83:                                               ; preds = %60, %70, %.thread
  %.sroa.452.0 = phi double [ 0.000000e+00, %60 ], [ %82, %70 ], [ %.155, %.thread ]
  %.sroa.051.0 = phi double [ 0.000000e+00, %60 ], [ %79, %70 ], [ %.2, %.thread ]
  %.fca.0.insert = insertvalue { double, double } poison, double %.sroa.051.0, 0
  %.fca.1.insert = insertvalue { double, double } %.fca.0.insert, double %.sroa.452.0, 1
  ret { double, double } %.fca.1.insert
}